target datalayout = "e-m:e-p270:32:32-p271:32:32-p272:64:64-i64:64-i128:128-f80:128-n8:16:32:64-S128"
target triple = "x86_64-pc-linux-gnu"

%struct.darktable_t = type { %struct.dt_codepath_t, i32, i32, ptr, ptr, ptr, ptr, ptr, ptr, ptr, ptr, ptr, ptr, ptr, ptr, ptr, ptr, ptr, ptr, ptr, ptr, ptr, ptr, ptr, ptr, ptr, ptr, ptr, ptr, ptr, [64 x %struct.dt_pthread_mutex_t], %struct.dt_pthread_mutex_t, %struct.dt_pthread_mutex_t, %struct.dt_pthread_mutex_t, %struct.dt_pthread_mutex_t, %struct.dt_pthread_mutex_t, ptr, ptr, ptr, ptr, ptr, ptr, ptr, ptr, ptr, ptr, ptr, ptr, ptr, %struct.dt_lua_state_t, ptr, double, ptr, i32, [47 x i32], i32, i32, ptr, ptr, %struct.dt_sys_resources_t, %struct.dt_backthumb_t, %struct.dt_gimp_t }
%struct.dt_codepath_t = type { i8, [3 x i8] }
%struct.dt_pthread_mutex_t = type { %union.pthread_mutex_t }
%union.pthread_mutex_t = type { %struct.__pthread_mutex_s }
%struct.__pthread_mutex_s = type { i32, i32, i32, i32, i32, i16, i16, %struct.__pthread_internal_list }
%struct.__pthread_internal_list = type { ptr, ptr }
%struct.dt_lua_state_t = type { i32 }
%struct.dt_sys_resources_t = type { i64, i64, ptr, ptr, i32 }
%struct.dt_backthumb_t = type { double, double, i32, i32, i32, i32 }
%struct.dt_gimp_t = type { i32, ptr, ptr, i32, i32 }
%struct.dt_dev_histogram_stats_t = type { i32, i64, i32, i32 }
%struct.dt_dev_pixelpipe_iop_t = type { ptr, ptr, ptr, ptr, i32, i32, %struct.dt_dev_histogram_collection_params_t, ptr, %struct.dt_dev_histogram_stats_t, [4 x i32], float, i32, i32, i64, i32, i32, %struct.dt_iop_roi_t, %struct.dt_iop_roi_t, %struct.dt_iop_roi_t, %struct.dt_iop_roi_t, i32, i32, %struct.dt_iop_buffer_dsc_t, %struct.dt_iop_buffer_dsc_t, ptr, [8 x i8] }
%struct.dt_dev_histogram_collection_params_t = type { ptr, i32 }
%struct.dt_iop_roi_t = type { i32, i32, i32, i32, float }
%struct.dt_iop_buffer_dsc_t = type { i32, i32, i32, [6 x [6 x i8]], %struct.anon, [12 x i8], %struct.anon.0, [4 x float], i32, [12 x i8] }
%struct.anon = type { i16, i16 }
%struct.anon.0 = type { i32, [12 x i8], [4 x float] }
%struct.dt_image_t = type { i32, i32, float, float, float, float, float, float, float, [64 x i8], [64 x i8], [128 x i8], [64 x i8], [64 x i8], [64 x i8], [64 x i8], i64, i32, %union.dt_image_correction_data_t, [64 x i8], [64 x i8], [64 x i8], [128 x i8], i32, [256 x i8], i32, i32, i32, i32, i32, i32, i32, i32, i32, i32, float, i32, i32, i32, i32, i32, i32, i64, i64, i64, i64, i32, [12 x i8], %struct.dt_iop_buffer_dsc_t, [9 x float], ptr, i32, i32, %struct.dt_image_raw_parameters_t, %struct.dt_image_geoloc_t, %struct._color_harmony_t, i16, [4 x i16], i32, i32, float, float, [4 x float], [4 x [3 x float]], [4 x float], ptr, ptr, i32, i32, [8 x i8] }
%union.dt_image_correction_data_t = type { %struct.anon.5 }
%struct.anon.5 = type { i32, float, [11 x float], [11 x float], [11 x float], [11 x float], [11 x float] }
%struct.dt_image_raw_parameters_t = type { i32 }
%struct.dt_image_geoloc_t = type { double, double, double }
%struct._color_harmony_t = type { i32, i32, i32 }
%struct.dt_dev_pixelpipe_t = type { %struct.dt_dev_pixelpipe_cache_t, i32, i64, ptr, i32, i32, float, i32, i32, [12 x i8], %struct.dt_iop_buffer_dsc_t, ptr, ptr, ptr, ptr, i32, i32, i32, i32, ptr, i64, i32, i32, float, float, float, i64, %struct.dt_pthread_mutex_t, %struct.dt_pthread_mutex_t, %struct.dt_pthread_mutex_t, i32, i32, i32, %struct.dt_dev_detail_mask_t, i32, i32, i32, i32, i32, i32, i32, i32, i32, i32, i32, i32, i32, i32, [8 x i8], %struct.dt_image_t, i32, ptr, i32, ptr, ptr, ptr, i32, ptr, i64, [8 x i8] }
%struct.dt_dev_pixelpipe_cache_t = type { i32, i64, i64, ptr, ptr, ptr, ptr, ptr, ptr, i64, i32, i64, i64, i32, i32, i32 }
%struct.dt_dev_detail_mask_t = type { %struct.dt_iop_roi_t, i64, ptr }

@darktable = external global %struct.darktable_t, align 8
@.str.27 = private unnamed_addr constant [24 x i8] c"refine with detail mask\00", align 1
@.str.28 = private unnamed_addr constant [2 x i8] c" \00", align 1
@.str.29 = private unnamed_addr constant [24 x i8] c" no mask data available\00", align 1
@.str.30 = private unnamed_addr constant [27 x i8] c"detail mask blending error\00", align 1

; Function Attrs: inlinehint nounwind uwtable
define internal float @_detail_mask_threshold(float noundef %0, i32 noundef %1) #3 {
  %3 = alloca float, align 4
  %4 = alloca i32, align 4
  store float %0, ptr %3, align 4, !tbaa !34
  store i32 %1, ptr %4, align 4, !tbaa !11
  %5 = load i32, ptr %4, align 4, !tbaa !11
  %6 = icmp ne i32 %5, 0
  br i1 %6, label %7, label %10

7:                                                ; preds = %2
  %8 = load float, ptr %3, align 4, !tbaa !34
  %9 = call reassoc nsz arcp contract afn float @llvm.pow.f32(float %8, float 2.000000e+00)
  br label %17

10:                                               ; preds = %2
  %11 = load float, ptr %3, align 4, !tbaa !34
  %12 = fpext reassoc nsz arcp contract afn float %11 to double
  %13 = call reassoc nsz arcp contract afn double @llvm.fabs.f64(double %12)
  %14 = fptrunc reassoc nsz arcp contract afn double %13 to float
  %15 = call reassoc nsz arcp contract afn float @llvm.pow.f32(float %14, float 5.000000e-01)
  %16 = fsub reassoc nsz arcp contract afn float 1.000000e+00, %15
  br label %17

17:                                               ; preds = %10, %7
  %18 = phi reassoc nsz arcp contract afn float [ %9, %7 ], [ %16, %10 ]
  %19 = fmul reassoc nsz arcp contract afn float 0x3F747AE140000000, %18
  ret float %19
}

; Function Attrs: inlinehint nounwind uwtable
define internal i32 @feqf(float noundef %0, float noundef %1, float noundef %2) #3 {
  %4 = alloca float, align 4
  %5 = alloca float, align 4
  %6 = alloca float, align 4
  store float %0, ptr %4, align 4, !tbaa !34
  store float %1, ptr %5, align 4, !tbaa !34
  store float %2, ptr %6, align 4, !tbaa !34
  %7 = load float, ptr %4, align 4, !tbaa !34
  %8 = load float, ptr %5, align 4, !tbaa !34
  %9 = fsub reassoc nsz arcp contract afn float %7, %8
  %10 = call reassoc nsz arcp contract afn float @llvm.fabs.f32(float %9)
  %11 = load float, ptr %6, align 4, !tbaa !34
  %12 = fcmp reassoc nsz arcp contract afn olt float %10, %11
  %13 = zext i1 %12 to i32
  ret i32 %13
}

; Function Attrs: nounwind uwtable
define internal void @_refine_with_detail_mask(ptr noundef %0, ptr noundef %1, ptr noundef %2, ptr noundef %3, ptr noundef %4, float noundef %5) #0 {
  %7 = alloca ptr, align 8
  %8 = alloca ptr, align 8
  %9 = alloca ptr, align 8
  %10 = alloca ptr, align 8
  %11 = alloca ptr, align 8
  %12 = alloca float, align 4
  %13 = alloca i32, align 4
  %14 = alloca float, align 4
  %15 = alloca ptr, align 8
  %16 = alloca ptr, align 8
  %17 = alloca ptr, align 8
  %18 = alloca i64, align 8
  %19 = alloca i64, align 8
  %20 = alloca i32, align 4
  store ptr %0, ptr %7, align 8, !tbaa !6
  store ptr %1, ptr %8, align 8, !tbaa !38
  store ptr %2, ptr %9, align 8, !tbaa !50
  store ptr %3, ptr %10, align 8, !tbaa !84
  store ptr %4, ptr %11, align 8, !tbaa !84
  store float %5, ptr %12, align 4, !tbaa !34
  %21 = load float, ptr %12, align 4, !tbaa !34
  %22 = call i32 @feqf(float noundef %21, float noundef 0.000000e+00, float noundef 0x3EB0C6F7A0000000)
  %23 = icmp ne i32 %22, 0
  br i1 %23, label %24, label %25

24:                                               ; preds = %6
  br label %153

25:                                               ; preds = %6
  call void @llvm.lifetime.start.p0(i64 4, ptr %13) #10
  %26 = load float, ptr %12, align 4, !tbaa !34
  %27 = fcmp reassoc nsz arcp contract afn ogt float %26, 0.000000e+00
  %28 = zext i1 %27 to i32
  store i32 %28, ptr %13, align 4, !tbaa !11
  call void @llvm.lifetime.start.p0(i64 4, ptr %14) #10
  %29 = load float, ptr %12, align 4, !tbaa !34
  %30 = load i32, ptr %13, align 4, !tbaa !11
  %31 = call reassoc nsz arcp contract afn float @_detail_mask_threshold(float noundef %29, i32 noundef %30)
  store float %31, ptr %14, align 4, !tbaa !34
  call void @llvm.lifetime.start.p0(i64 8, ptr %15) #10
  store ptr null, ptr %15, align 8, !tbaa !50
  call void @llvm.lifetime.start.p0(i64 8, ptr %16) #10
  store ptr null, ptr %16, align 8, !tbaa !50
  call void @llvm.lifetime.start.p0(i64 8, ptr %17) #10
  %32 = load ptr, ptr %8, align 8, !tbaa !38
  %33 = getelementptr inbounds nuw %struct.dt_dev_pixelpipe_iop_t, ptr %32, i32 0, i32 1
  %34 = load ptr, ptr %33, align 8, !tbaa !56
  store ptr %34, ptr %17, align 8, !tbaa !155
  %35 = load ptr, ptr %17, align 8, !tbaa !155
  %36 = getelementptr inbounds nuw %struct.dt_dev_pixelpipe_t, ptr %35, i32 0, i32 33
  %37 = getelementptr inbounds nuw %struct.dt_dev_detail_mask_t, ptr %36, i32 0, i32 2
  %38 = load ptr, ptr %37, align 8, !tbaa !156
  %39 = icmp eq ptr %38, null
  br i1 %39, label %40, label %41

40:                                               ; preds = %25
  br label %128

41:                                               ; preds = %25
  %42 = load ptr, ptr %8, align 8, !tbaa !38
  %43 = load float, ptr %14, align 4, !tbaa !34
  %44 = load i32, ptr %13, align 4, !tbaa !11
  %45 = call ptr @dt_masks_calc_detail_mask(ptr noundef %42, float noundef %43, i32 noundef %44)
  store ptr %45, ptr %15, align 8, !tbaa !50
  %46 = load ptr, ptr %15, align 8, !tbaa !50
  %47 = icmp ne ptr %46, null
  br i1 %47, label %49, label %48

48:                                               ; preds = %41
  br label %128

49:                                               ; preds = %41
  %50 = load ptr, ptr %8, align 8, !tbaa !38
  %51 = load ptr, ptr %15, align 8, !tbaa !50
  %52 = load ptr, ptr %7, align 8, !tbaa !6
  %53 = call ptr @dt_dev_distort_detail_mask(ptr noundef %50, ptr noundef %51, ptr noundef %52)
  store ptr %53, ptr %16, align 8, !tbaa !50
  %54 = load ptr, ptr %15, align 8, !tbaa !50
  call void @free(ptr noundef %54) #10
  store ptr null, ptr %15, align 8, !tbaa !50
  %55 = load ptr, ptr %16, align 8, !tbaa !50
  %56 = icmp eq ptr %55, null
  br i1 %56, label %57, label %58

57:                                               ; preds = %49
  br label %128

58:                                               ; preds = %49
  br label %59

59:                                               ; preds = %58
  %60 = load i32, ptr getelementptr inbounds nuw (%struct.darktable_t, ptr @darktable, i32 0, i32 2), align 8, !tbaa !98
  %61 = and i32 33554432, %60
  %62 = icmp ne i32 %61, 0
  br i1 %62, label %63, label %75

63:                                               ; preds = %59
  %64 = load i32, ptr getelementptr inbounds nuw (%struct.darktable_t, ptr @darktable, i32 0, i32 2), align 8, !tbaa !98
  %65 = xor i32 %64, -1
  %66 = and i32 0, %65
  %67 = icmp ne i32 %66, 0
  br i1 %67, label %75, label %68

68:                                               ; preds = %63
  %69 = load ptr, ptr %8, align 8, !tbaa !38
  %70 = getelementptr inbounds nuw %struct.dt_dev_pixelpipe_iop_t, ptr %69, i32 0, i32 1
  %71 = load ptr, ptr %70, align 8, !tbaa !56
  %72 = load ptr, ptr %7, align 8, !tbaa !6
  %73 = load ptr, ptr %10, align 8, !tbaa !84
  %74 = load ptr, ptr %11, align 8, !tbaa !84
  call void (ptr, ptr, ptr, i32, ptr, ptr, ptr, ...) @dt_print_pipe_ext(ptr noundef @.str.27, ptr noundef %71, ptr noundef %72, i32 noundef -1, ptr noundef %73, ptr noundef %74, ptr noundef @.str.28)
  br label %75

75:                                               ; preds = %68, %63, %59
  br label %76

76:                                               ; preds = %75
  br label %77

77:                                               ; preds = %76
  %78 = load ptr, ptr %11, align 8, !tbaa !84
  %79 = getelementptr inbounds nuw %struct.dt_iop_roi_t, ptr %78, i32 0, i32 2
  %80 = load i32, ptr %79, align 4, !tbaa !94
  %81 = sext i32 %80 to i64
  %82 = load ptr, ptr %11, align 8, !tbaa !84
  %83 = getelementptr inbounds nuw %struct.dt_iop_roi_t, ptr %82, i32 0, i32 3
  %84 = load i32, ptr %83, align 4, !tbaa !95
  %85 = sext i32 %84 to i64
  %86 = mul i64 %81, %85
  store i64 %86, ptr %18, align 8, !tbaa !52
  call void @llvm.lifetime.start.p0(i64 8, ptr %19) #10
  store i64 0, ptr %19, align 8, !tbaa !52
  br label %87

87:                                               ; preds = %123, %77
  %88 = load i64, ptr %19, align 8, !tbaa !52
  %89 = load i64, ptr %18, align 8, !tbaa !52
  %90 = icmp ult i64 %88, %89
  br i1 %90, label %92, label %91

91:                                               ; preds = %87
  call void @llvm.lifetime.end.p0(i64 8, ptr %19) #10
  br label %126

92:                                               ; preds = %87
  %93 = load ptr, ptr %9, align 8, !tbaa !50
  %94 = load i64, ptr %19, align 8, !tbaa !52
  %95 = getelementptr inbounds nuw float, ptr %93, i64 %94
  %96 = load float, ptr %95, align 4, !tbaa !34
  %97 = load ptr, ptr %16, align 8, !tbaa !50
  %98 = load i64, ptr %19, align 8, !tbaa !52
  %99 = getelementptr inbounds nuw float, ptr %97, i64 %98
  %100 = load float, ptr %99, align 4, !tbaa !34
  %101 = fcmp reassoc nsz arcp contract afn oge float %100, 0.000000e+00
  br i1 %101, label %102, label %116

102:                                              ; preds = %92
  %103 = load ptr, ptr %16, align 8, !tbaa !50
  %104 = load i64, ptr %19, align 8, !tbaa !52
  %105 = getelementptr inbounds nuw float, ptr %103, i64 %104
  %106 = load float, ptr %105, align 4, !tbaa !34
  %107 = fcmp reassoc nsz arcp contract afn ole float %106, 1.000000e+00
  br i1 %107, label %108, label %113

108:                                              ; preds = %102
  %109 = load ptr, ptr %16, align 8, !tbaa !50
  %110 = load i64, ptr %19, align 8, !tbaa !52
  %111 = getelementptr inbounds nuw float, ptr %109, i64 %110
  %112 = load float, ptr %111, align 4, !tbaa !34
  br label %114

113:                                              ; preds = %102
  br label %114

114:                                              ; preds = %113, %108
  %115 = phi reassoc nsz arcp contract afn float [ %112, %108 ], [ 1.000000e+00, %113 ]
  br label %117

116:                                              ; preds = %92
  br label %117

117:                                              ; preds = %116, %114
  %118 = phi reassoc nsz arcp contract afn float [ %115, %114 ], [ 0.000000e+00, %116 ]
  %119 = fmul reassoc nsz arcp contract afn float %96, %118
  %120 = load ptr, ptr %9, align 8, !tbaa !50
  %121 = load i64, ptr %19, align 8, !tbaa !52
  %122 = getelementptr inbounds nuw float, ptr %120, i64 %121
  store float %119, ptr %122, align 4, !tbaa !34
  br label %123

123:                                              ; preds = %117
  %124 = load i64, ptr %19, align 8, !tbaa !52
  %125 = add i64 %124, 1
  store i64 %125, ptr %19, align 8, !tbaa !52
  br label %87

126:                                              ; preds = %91
  %127 = load ptr, ptr %16, align 8, !tbaa !50
  call void @free(ptr noundef %127) #10
  store i32 1, ptr %20, align 4
  br label %151

128:                                              ; preds = %57, %48, %40
  br label %129

129:                                              ; preds = %128
  %130 = load i32, ptr getelementptr inbounds nuw (%struct.darktable_t, ptr @darktable, i32 0, i32 2), align 8, !tbaa !98
  %131 = and i32 33558528, %130
  %132 = icmp ne i32 %131, 0
  br i1 %132, label %133, label %145

133:                                              ; preds = %129
  %134 = load i32, ptr getelementptr inbounds nuw (%struct.darktable_t, ptr @darktable, i32 0, i32 2), align 8, !tbaa !98
  %135 = xor i32 %134, -1
  %136 = and i32 0, %135
  %137 = icmp ne i32 %136, 0
  br i1 %137, label %145, label %138

138:                                              ; preds = %133
  %139 = load ptr, ptr %8, align 8, !tbaa !38
  %140 = getelementptr inbounds nuw %struct.dt_dev_pixelpipe_iop_t, ptr %139, i32 0, i32 1
  %141 = load ptr, ptr %140, align 8, !tbaa !56
  %142 = load ptr, ptr %7, align 8, !tbaa !6
  %143 = load ptr, ptr %10, align 8, !tbaa !84
  %144 = load ptr, ptr %11, align 8, !tbaa !84
  call void (ptr, ptr, ptr, i32, ptr, ptr, ptr, ...) @dt_print_pipe_ext(ptr noundef @.str.27, ptr noundef %141, ptr noundef %142, i32 noundef -1, ptr noundef %143, ptr noundef %144, ptr noundef @.str.29)
  br label %145

145:                                              ; preds = %138, %133, %129
  br label %146

146:                                              ; preds = %145
  br label %147

147:                                              ; preds = %146
  %148 = call ptr @dcgettext(ptr noundef null, ptr noundef @.str.30, i32 noundef 5) #10
  call void (ptr, ...) @dt_control_log(ptr noundef %148)
  %149 = load ptr, ptr %16, align 8, !tbaa !50
  call void @free(ptr noundef %149) #10
  %150 = load ptr, ptr %15, align 8, !tbaa !50
  call void @free(ptr noundef %150) #10
  store i32 0, ptr %20, align 4
  br label %151

151:                                              ; preds = %147, %126
  call void @llvm.lifetime.end.p0(i64 8, ptr %17) #10
  call void @llvm.lifetime.end.p0(i64 8, ptr %16) #10
  call void @llvm.lifetime.end.p0(i64 8, ptr %15) #10
  call void @llvm.lifetime.end.p0(i64 4, ptr %14) #10
  call void @llvm.lifetime.end.p0(i64 4, ptr %13) #10
  %152 = load i32, ptr %20, align 4
  switch i32 %152, label %154 [
    i32 0, label %153
    i32 1, label %153
  ]

153:                                              ; preds = %24, %151, %151
  ret void

154:                                              ; preds = %151
  unreachable
}