; Function Attrs: nounwind uwtable
define internal fastcc void @_refine_with_detail_mask(ptr noundef %0, ptr noundef %1, ptr noundef nonnull captures(none) %2, ptr noundef %3, ptr noundef %4, float noundef %5) unnamed_addr #0 {
  %7 = tail call reassoc nsz arcp contract afn float @llvm.fabs.f32(float %5)
  %8 = fcmp reassoc nsz arcp contract afn uge float %7, 0x3EB0C6F7A0000000
  br i1 %8, label %_detail_mask_threshold.exit, label %56

_detail_mask_threshold.exit:                      ; preds = %6
  %9 = getelementptr inbounds nuw i8, ptr %1, i64 8
  %10 = load ptr, ptr %9, align 8, !tbaa !46
  %11 = getelementptr inbounds nuw i8, ptr %10, i64 568
  %12 = load ptr, ptr %11, align 8, !tbaa !147
  %13 = icmp eq ptr %12, null
  br i1 %13, label %49, label %14

14:                                               ; preds = %_detail_mask_threshold.exit
  %15 = fcmp reassoc nsz arcp contract afn ogt float %5, 0.000000e+00
  %square.i = fmul reassoc nsz arcp contract afn float %5, %5
  %sqrt.i = tail call reassoc nsz arcp contract afn float @llvm.sqrt.f32(float %7)
  %16 = fsub reassoc nsz arcp contract afn float 1.000000e+00, %sqrt.i
  %17 = select reassoc nsz arcp contract afn i1 %15, float %square.i, float %16
  %18 = fmul reassoc nsz arcp contract afn float %17, 0x3F747AE140000000
  %19 = zext i1 %15 to i32
  %20 = tail call ptr @dt_masks_calc_detail_mask(ptr noundef nonnull %1, float noundef %18, i32 noundef %19) #17
  %.not46 = icmp eq ptr %20, null
  br i1 %.not46, label %49, label %21

21:                                               ; preds = %14
  %22 = tail call ptr @dt_dev_distort_detail_mask(ptr noundef nonnull %1, ptr noundef nonnull %20, ptr noundef %0) #17
  tail call void @free(ptr noundef nonnull %20) #17
  %23 = icmp eq ptr %22, null
  br i1 %23, label %49, label %24

24:                                               ; preds = %21
  %25 = load i32, ptr getelementptr inbounds nuw (i8, ptr @darktable, i64 8), align 8, !tbaa !87
  %26 = and i32 %25, 33554432
  %.not47 = icmp eq i32 %26, 0
  br i1 %.not47, label %29, label %27

27:                                               ; preds = %24
  %28 = load ptr, ptr %9, align 8, !tbaa !46
  tail call void (ptr, ptr, ptr, i32, ptr, ptr, ptr, ...) @dt_print_pipe_ext(ptr noundef nonnull @.str.27, ptr noundef %28, ptr noundef %0, i32 noundef -1, ptr noundef %3, ptr noundef %4, ptr noundef nonnull @.str.28) #17
  br label %29

29:                                               ; preds = %27, %24
  %30 = getelementptr inbounds nuw i8, ptr %4, i64 8
  %31 = load i32, ptr %30, align 4, !tbaa !83
  %32 = sext i32 %31 to i64
  %33 = getelementptr inbounds nuw i8, ptr %4, i64 12
  %34 = load i32, ptr %33, align 4, !tbaa !84
  %35 = sext i32 %34 to i64
  %36 = mul nsw i64 %35, %32
  %.not = icmp eq i64 %36, 0
  br i1 %.not, label %._crit_edge, label %.lr.ph

._crit_edge:                                      ; preds = %45, %29
  tail call void @free(ptr noundef nonnull %22) #17
  br label %56

.lr.ph:                                           ; preds = %29, %45
  %.049 = phi i64 [ %48, %45 ], [ 0, %29 ]
  %37 = getelementptr inbounds nuw float, ptr %2, i64 %.049
  %38 = load float, ptr %37, align 4, !tbaa !31
  %39 = getelementptr inbounds nuw float, ptr %22, i64 %.049
  %40 = load float, ptr %39, align 4, !tbaa !31
  %41 = fcmp reassoc nsz arcp contract afn ult float %40, 0.000000e+00
  br i1 %41, label %45, label %42

42:                                               ; preds = %.lr.ph
  %43 = fcmp reassoc nsz arcp contract afn ugt float %40, 1.000000e+00
  br i1 %43, label %45, label %44

44:                                               ; preds = %42
  br label %45

45:                                               ; preds = %.lr.ph, %44, %42
  %46 = phi reassoc nsz arcp contract afn float [ %40, %44 ], [ 1.000000e+00, %42 ], [ 0.000000e+00, %.lr.ph ]
  %47 = fmul reassoc nsz arcp contract afn float %46, %38
  store float %47, ptr %37, align 4, !tbaa !31
  %48 = add nuw i64 %.049, 1
  %exitcond.not = icmp eq i64 %48, %36
  br i1 %exitcond.not, label %._crit_edge, label %.lr.ph

49:                                               ; preds = %_detail_mask_threshold.exit, %14, %21
  %50 = load i32, ptr getelementptr inbounds nuw (i8, ptr @darktable, i64 8), align 8, !tbaa !87
  %51 = and i32 %50, 33558528
  %.not48 = icmp eq i32 %51, 0
  br i1 %.not48, label %54, label %52

52:                                               ; preds = %49
  %53 = load ptr, ptr %9, align 8, !tbaa !46
  tail call void (ptr, ptr, ptr, i32, ptr, ptr, ptr, ...) @dt_print_pipe_ext(ptr noundef nonnull @.str.27, ptr noundef %53, ptr noundef %0, i32 noundef -1, ptr noundef %3, ptr noundef %4, ptr noundef nonnull @.str.29) #17
  br label %54

54:                                               ; preds = %52, %49
  %55 = tail call ptr @dcgettext(ptr noundef null, ptr noundef nonnull @.str.30, i32 noundef 5) #17
  tail call void (ptr, ...) @dt_control_log(ptr noundef %55) #17
  br label %56

56:                                               ; preds = %._crit_edge, %54, %6
  ret void
}